target datalayout = "e-m:e-p270:32:32-p271:32:32-p272:64:64-i64:64-i128:128-f80:128-n8:16:32:64-S128"
target triple = "x86_64-pc-linux-gnu"

%struct.H5S_select_class_t = type { i32, ptr, ptr, ptr, ptr, ptr, ptr, ptr, ptr, ptr, ptr, ptr, ptr, ptr, ptr, ptr, ptr, ptr, ptr, ptr, ptr }
%struct.H5S_t = type { %struct.H5S_extent_t, %struct.H5S_select_t }
%struct.H5S_extent_t = type { %struct.H5O_shared_t, i32, i32, i64, i32, ptr, ptr }
%struct.H5O_shared_t = type { i32, ptr, i32, %union.anon }
%union.anon = type { %struct.H5O_mesg_loc_t }
%struct.H5O_mesg_loc_t = type { i32, i64 }
%struct.H5S_select_t = type { ptr, i8, [32 x i64], i64, %union.anon.0 }
%union.anon.0 = type { ptr }
%struct.H5S_sel_iter_t = type { ptr, i32, [32 x i64], [32 x i64], i64, i64, i32, %union.anon.1 }
%union.anon.1 = type { %struct.H5S_hyper_iter_t }
%struct.H5S_hyper_iter_t = type { [32 x i64], [32 x i64], i32, i8, [32 x %struct.H5S_hyper_dim_t], [32 x i64], [32 x i64], [32 x i8], [32 x i64], ptr, [32 x ptr] }
%struct.H5S_hyper_dim_t = type { i64, i64, i64, i64 }

; Function Attrs: nounwind uwtable
define i32 @H5S_select_iter_init(ptr noundef %0, ptr noundef %1, i64 noundef %2, i32 noundef %3) #0 {
  %5 = alloca ptr, align 8
  %6 = alloca ptr, align 8
  %7 = alloca i64, align 8
  %8 = alloca i32, align 4
  %9 = alloca i32, align 4
  store ptr %0, ptr %5, align 8
  store ptr %1, ptr %6, align 8
  store i64 %2, ptr %7, align 8
  store i32 %3, ptr %8, align 4
  store i32 -1, ptr %9, align 4
  %10 = load ptr, ptr %6, align 8
  %11 = getelementptr inbounds %struct.H5S_t, ptr %10, i32 0, i32 0
  %12 = getelementptr inbounds %struct.H5S_extent_t, ptr %11, i32 0, i32 4
  %13 = load i32, ptr %12, align 8
  %14 = load ptr, ptr %5, align 8
  %15 = getelementptr inbounds %struct.H5S_sel_iter_t, ptr %14, i32 0, i32 1
  store i32 %13, ptr %15, align 8
  %16 = load ptr, ptr %5, align 8
  %17 = getelementptr inbounds %struct.H5S_sel_iter_t, ptr %16, i32 0, i32 1
  %18 = load i32, ptr %17, align 8
  %19 = icmp ugt i32 %18, 0
  br i1 %19, label %20, label %47

20:                                               ; preds = %4
  %21 = load ptr, ptr %5, align 8
  %22 = getelementptr inbounds %struct.H5S_sel_iter_t, ptr %21, i32 0, i32 2
  %23 = getelementptr inbounds [32 x i64], ptr %22, i64 0, i64 0
  %24 = load ptr, ptr %6, align 8
  %25 = getelementptr inbounds %struct.H5S_t, ptr %24, i32 0, i32 0
  %26 = getelementptr inbounds %struct.H5S_extent_t, ptr %25, i32 0, i32 5
  %27 = load ptr, ptr %26, align 8
  %28 = load ptr, ptr %6, align 8
  %29 = getelementptr inbounds %struct.H5S_t, ptr %28, i32 0, i32 0
  %30 = getelementptr inbounds %struct.H5S_extent_t, ptr %29, i32 0, i32 4
  %31 = load i32, ptr %30, align 8
  %32 = zext i32 %31 to i64
  %33 = mul i64 8, %32
  call void @llvm.memcpy.p0.p0.i64(ptr align 8 %23, ptr align 8 %27, i64 %33, i1 false)
  %34 = load ptr, ptr %5, align 8
  %35 = getelementptr inbounds %struct.H5S_sel_iter_t, ptr %34, i32 0, i32 3
  %36 = getelementptr inbounds [32 x i64], ptr %35, i64 0, i64 0
  %37 = load ptr, ptr %6, align 8
  %38 = getelementptr inbounds %struct.H5S_t, ptr %37, i32 0, i32 1
  %39 = getelementptr inbounds %struct.H5S_select_t, ptr %38, i32 0, i32 2
  %40 = getelementptr inbounds [32 x i64], ptr %39, i64 0, i64 0
  %41 = load ptr, ptr %6, align 8
  %42 = getelementptr inbounds %struct.H5S_t, ptr %41, i32 0, i32 0
  %43 = getelementptr inbounds %struct.H5S_extent_t, ptr %42, i32 0, i32 4
  %44 = load i32, ptr %43, align 8
  %45 = zext i32 %44 to i64
  %46 = mul i64 8, %45
  call void @llvm.memcpy.p0.p0.i64(ptr align 8 %36, ptr align 8 %40, i64 %46, i1 false)
  br label %47

47:                                               ; preds = %20, %4
  %48 = load i64, ptr %7, align 8
  %49 = load ptr, ptr %5, align 8
  %50 = getelementptr inbounds %struct.H5S_sel_iter_t, ptr %49, i32 0, i32 5
  store i64 %48, ptr %50, align 8
  %51 = load ptr, ptr %6, align 8
  %52 = getelementptr inbounds %struct.H5S_t, ptr %51, i32 0, i32 1
  %53 = getelementptr inbounds %struct.H5S_select_t, ptr %52, i32 0, i32 3
  %54 = load i64, ptr %53, align 8
  %55 = load ptr, ptr %5, align 8
  %56 = getelementptr inbounds %struct.H5S_sel_iter_t, ptr %55, i32 0, i32 4
  store i64 %54, ptr %56, align 8
  %57 = load i32, ptr %8, align 4
  %58 = load ptr, ptr %5, align 8
  %59 = getelementptr inbounds %struct.H5S_sel_iter_t, ptr %58, i32 0, i32 6
  store i32 %57, ptr %59, align 8
  %60 = load ptr, ptr %6, align 8
  %61 = getelementptr inbounds %struct.H5S_t, ptr %60, i32 0, i32 1
  %62 = getelementptr inbounds %struct.H5S_select_t, ptr %61, i32 0, i32 0
  %63 = load ptr, ptr %62, align 8
  %64 = getelementptr inbounds %struct.H5S_select_class_t, ptr %63, i32 0, i32 20
  %65 = load ptr, ptr %64, align 8
  %66 = load ptr, ptr %6, align 8
  %67 = load ptr, ptr %5, align 8
  %68 = call i32 %65(ptr noundef %66, ptr noundef %67)
  store i32 %68, ptr %9, align 4
  %69 = load i32, ptr %9, align 4
  ret i32 %69
}