; Function Attrs: nounwind uwtable
define i32 @H5S_select_iter_init(ptr noundef %0, ptr noundef %1, i64 noundef %2, i32 noundef %3) local_unnamed_addr #3 {
  %5 = getelementptr inbounds i8, ptr %1, i64 56
  %6 = load i32, ptr %5, align 8
  %7 = getelementptr inbounds i8, ptr %0, i64 8
  store i32 %6, ptr %7, align 8
  %.not = icmp eq i32 %6, 0
  br i1 %.not, label %19, label %8

8:                                                ; preds = %4
  %9 = getelementptr inbounds i8, ptr %0, i64 16
  %10 = getelementptr inbounds i8, ptr %1, i64 64
  %11 = load ptr, ptr %10, align 8
  %12 = zext i32 %6 to i64
  %13 = shl nuw nsw i64 %12, 3
  tail call void @llvm.memcpy.p0.p0.i64(ptr nonnull align 8 %9, ptr align 8 %11, i64 %13, i1 false)
  %14 = getelementptr inbounds i8, ptr %0, i64 272
  %15 = getelementptr inbounds i8, ptr %1, i64 96
  %16 = load i32, ptr %5, align 8
  %17 = zext i32 %16 to i64
  %18 = shl nuw nsw i64 %17, 3
  tail call void @llvm.memcpy.p0.p0.i64(ptr nonnull align 8 %14, ptr nonnull align 8 %15, i64 %18, i1 false)
  br label %19

19:                                               ; preds = %8, %4
  %20 = getelementptr inbounds i8, ptr %0, i64 536
  store i64 %2, ptr %20, align 8
  %21 = getelementptr inbounds i8, ptr %1, i64 80
  %22 = getelementptr inbounds i8, ptr %1, i64 352
  %23 = load i64, ptr %22, align 8
  %24 = getelementptr inbounds i8, ptr %0, i64 528
  store i64 %23, ptr %24, align 8
  %25 = getelementptr inbounds i8, ptr %0, i64 544
  store i32 %3, ptr %25, align 8
  %26 = load ptr, ptr %21, align 8
  %27 = getelementptr inbounds i8, ptr %26, i64 160
  %28 = load ptr, ptr %27, align 8
  %29 = tail call i32 %28(ptr noundef nonnull %1, ptr noundef nonnull %0) #7
  ret i32 %29
}